Certificate:
    Data:
        Version: 3 (0x2)
        Serial Number: 259 (0x103)
    Signature Algorithm: sha1WithRSAEncryption
        Issuer: C=pt, ST=almada, L=almada, O=unl, OU=fct, CN=ca
        Validity
            Not Before: Dec 19 16:16:02 2013 GMT
            Not After : Dec 19 16:16:02 2014 GMT
        Subject: C=pt, ST=almada, O=unl, OU=fct, CN=client
        Subject Public Key Info:
            Public Key Algorithm: rsaEncryption
                Public-Key: (1024 bit)
                Modulus:
                    00:95:d3:5c:28:eb:b0:b6:a0:2b:14:98:2a:4a:bb:
                    1b:31:15:5a:50:d3:35:90:af:9f:3f:59:d8:1f:5b:
                    8c:84:08:48:c0:60:ef:84:e0:af:67:ed:62:9c:cd:
                    9e:4f:0f:27:e0:1f:55:79:bd:94:83:59:c4:d3:bc:
                    1a:e5:d2:fa:a0:4d:61:d3:ff:5c:1c:b8:6b:00:93:
                    b5:1f:d3:ad:14:89:86:da:1e:ff:d5:7e:de:c9:0f:
                    61:41:dc:8f:da:85:72:2d:3c:e4:ee:5c:bc:9c:dc:
                    25:0b:80:a0:dc:75:84:2e:4e:4d:0a:38:c4:cd:9b:
                    1f:66:63:be:94:73:b3:d5:c7
                Exponent: 65537 (0x10001)
        X509v3 extensions:
            X509v3 Basic Constraints: 
                CA:FALSE
            Netscape Comment: 
                OpenSSL Generated Certificate
            X509v3 Subject Key Identifier: 
                C1:46:E6:60:7F:2E:3A:E6:C1:04:8B:BC:34:43:BA:07:76:E5:D3:E0
            X509v3 Authority Key Identifier: 
                keyid:E4:DA:D4:F4:44:94:F9:36:09:00:F5:2F:FF:37:CA:A3:54:E5:09:4B

    Signature Algorithm: sha1WithRSAEncryption
         56:0f:24:ae:dd:30:d4:36:44:ba:5d:70:d6:f8:be:e5:a1:6f:
         81:d8:23:cc:3d:f3:20:d0:14:b9:3d:59:cb:f0:ed:13:8c:b0:
         ac:51:75:70:db:03:ec:24:1a:67:6b:bf:4e:90:46:eb:06:11:
         15:93:85:0e:34:98:a7:64:7a:0d:47:80:91:20:01:40:fa:42:
         42:8e:a6:89:64:f8:03:d9:33:94:00:91:c7:43:c7:ca:f3:c7:
         25:8e:ca:ec:b8:a8:4f:c5:30:1d:6c:e7:98:2e:26:da:8d:7c:
         cf:9e:01:37:4b:89:61:90:f6:e3:66:fe:f1:4c:24:91:77:4e:
         10:7d
-----BEGIN CERTIFICATE-----
MIIClTCCAf6gAwIBAgICAQMwDQYJKoZIhvcNAQEFBQAwWDELMAkGA1UEBhMCcHQx
DzANBgNVBAgTBmFsbWFkYTEPMA0GA1UEBxMGYWxtYWRhMQwwCgYDVQQKEwN1bmwx
DDAKBgNVBAsTA2ZjdDELMAkGA1UEAxMCY2EwHhcNMTMxMjE5MTYxNjAyWhcNMTQx
MjE5MTYxNjAyWjBLMQswCQYDVQQGEwJwdDEPMA0GA1UECBMGYWxtYWRhMQwwCgYD
VQQKEwN1bmwxDDAKBgNVBAsTA2ZjdDEPMA0GA1UEAxMGY2xpZW50MIGfMA0GCSqG
SIb3DQEBAQUAA4GNADCBiQKBgQCV01wo67C2oCsUmCpKuxsxFVpQ0zWQr58/Wdgf
W4yECEjAYO+E4K9n7WKczZ5PDyfgH1V5vZSDWcTTvBrl0vqgTWHT/1wcuGsAk7Uf
060UiYbaHv/Vft7JD2FB3I/ahXItPOTuXLyc3CULgKDcdYQuTk0KOMTNmx9mY76U
c7PVxwIDAQABo3sweTAJBgNVHRMEAjAAMCwGCWCGSAGG+EIBDQQfFh1PcGVuU1NM
IEdlbmVyYXRlZCBDZXJ0aWZpY2F0ZTAdBgNVHQ4EFgQUwUbmYH8uOubBBIu8NEO6
B3bl0+AwHwYDVR0jBBgwFoAU5NrU9ESU+TYJAPUv/zfKo1TlCUswDQYJKoZIhvcN
AQEFBQADgYEAVg8krt0w1DZEul1w1vi+5aFvgdgjzD3zINAUuT1Zy/DtE4ywrFF1
cNsD7CQaZ2u/TpBG6wYRFZOFDjSYp2R6DUeAkSABQPpCQo6miWT4A9kzlACRx0PH
yvPHJY7K7LioT8UwHWznmC4m2o18z54BN0uJYZD242b+8UwkkXdOEH0=
-----END CERTIFICATE-----
