Certificate:
    Data:
        Version: 3 (0x2)
        Serial Number: 258 (0x102)
    Signature Algorithm: sha1WithRSAEncryption
        Issuer: C=pt, ST=almada, L=almada, O=unl, OU=fct, CN=ca
        Validity
            Not Before: Dec 19 14:55:29 2013 GMT
            Not After : Dec 19 14:55:29 2014 GMT
        Subject: C=pt, ST=almada, O=unl, OU=fct, CN=server
        Subject Public Key Info:
            Public Key Algorithm: rsaEncryption
                Public-Key: (1024 bit)
                Modulus:
                    00:ba:0c:ee:c4:f0:b9:25:de:f2:58:b1:aa:e3:d2:
                    60:11:82:9e:2e:8d:a6:af:51:cf:96:c2:a1:05:fc:
                    ad:e6:04:6b:e5:4c:9e:4b:5b:6d:56:83:3f:9a:93:
                    7b:ef:6e:99:3b:c4:d3:90:2d:91:68:60:29:d4:53:
                    f9:b2:c2:67:85:bf:d9:22:dd:7e:1d:3f:3b:c4:28:
                    eb:48:8c:22:4b:17:28:25:88:50:79:34:25:e7:19:
                    a7:82:35:b1:b5:74:52:02:45:fc:2a:1b:f5:80:8c:
                    bb:97:35:79:49:8f:b7:c4:fc:80:81:35:65:a8:e3:
                    c8:ad:a8:3f:01:2e:89:03:29
                Exponent: 65537 (0x10001)
        X509v3 extensions:
            X509v3 Basic Constraints: 
                CA:FALSE
            Netscape Comment: 
                OpenSSL Generated Certificate
            X509v3 Subject Key Identifier: 
                1A:F5:B7:9B:4A:C6:36:02:01:38:6E:F7:04:A0:AE:2A:20:D5:B3:C0
            X509v3 Authority Key Identifier: 
                keyid:E4:DA:D4:F4:44:94:F9:36:09:00:F5:2F:FF:37:CA:A3:54:E5:09:4B

    Signature Algorithm: sha1WithRSAEncryption
         1b:d2:2e:a6:50:ef:ba:9b:99:83:37:70:42:55:cd:2c:2c:09:
         3d:ab:3c:9e:38:e7:2c:66:9c:6c:2e:17:e0:31:05:d8:3c:35:
         55:c6:e8:c5:0f:9b:64:b2:9b:ed:37:42:7c:4a:59:96:55:cc:
         2c:84:22:e9:7a:ff:b4:08:41:19:63:81:53:91:ce:6f:6b:06:
         8a:a2:ee:73:4e:8f:f4:25:5f:b4:b8:e4:74:6a:90:5a:a3:0d:
         72:e5:65:22:ff:a7:0c:e1:66:3c:a6:ff:00:5e:da:e0:87:70:
         62:b5:99:22:ac:70:c9:1b:93:0c:35:7c:72:9d:03:15:fe:9d:
         62:34
-----BEGIN CERTIFICATE-----
MIIClTCCAf6gAwIBAgICAQIwDQYJKoZIhvcNAQEFBQAwWDELMAkGA1UEBhMCcHQx
DzANBgNVBAgTBmFsbWFkYTEPMA0GA1UEBxMGYWxtYWRhMQwwCgYDVQQKEwN1bmwx
DDAKBgNVBAsTA2ZjdDELMAkGA1UEAxMCY2EwHhcNMTMxMjE5MTQ1NTI5WhcNMTQx
MjE5MTQ1NTI5WjBLMQswCQYDVQQGEwJwdDEPMA0GA1UECBMGYWxtYWRhMQwwCgYD
VQQKEwN1bmwxDDAKBgNVBAsTA2ZjdDEPMA0GA1UEAxMGc2VydmVyMIGfMA0GCSqG
SIb3DQEBAQUAA4GNADCBiQKBgQC6DO7E8Lkl3vJYsarj0mARgp4ujaavUc+WwqEF
/K3mBGvlTJ5LW21Wgz+ak3vvbpk7xNOQLZFoYCnUU/mywmeFv9ki3X4dPzvEKOtI
jCJLFygliFB5NCXnGaeCNbG1dFICRfwqG/WAjLuXNXlJj7fE/ICBNWWo48itqD8B
LokDKQIDAQABo3sweTAJBgNVHRMEAjAAMCwGCWCGSAGG+EIBDQQfFh1PcGVuU1NM
IEdlbmVyYXRlZCBDZXJ0aWZpY2F0ZTAdBgNVHQ4EFgQUGvW3m0rGNgIBOG73BKCu
KiDVs8AwHwYDVR0jBBgwFoAU5NrU9ESU+TYJAPUv/zfKo1TlCUswDQYJKoZIhvcN
AQEFBQADgYEAG9IuplDvupuZgzdwQlXNLCwJPas8njjnLGacbC4X4DEF2Dw1Vcbo
xQ+bZLKb7TdCfEpZllXMLIQi6Xr/tAhBGWOBU5HOb2sGiqLuc06P9CVftLjkdGqQ
WqMNcuVlIv+nDOFmPKb/AF7a4IdwYrWZIqxwyRuTDDV8cp0DFf6dYjQ=
-----END CERTIFICATE-----
